; Function Attrs: mustprogress nounwind uwtable
define dso_local void @_ZN21btSimpleDynamicsWorldD0Ev(ptr noundef nonnull align 8 dereferenceable(308) %this) unnamed_addr #2 align 2 personality ptr @__gxx_personality_v0 {
entry:
  store ptr getelementptr inbounds ({ [38 x ptr] }, ptr @_ZTV21btSimpleDynamicsWorld, i64 0, i32 0, i64 2), ptr %this, align 8
  %m_ownsConstraintSolver.i = getelementptr inbounds i8, ptr %this, i64 288
  %0 = load i8, ptr %m_ownsConstraintSolver.i, align 8
  %1 = and i8 %0, 1
  %tobool.not.i = icmp eq i8 %1, 0
  br i1 %tobool.not.i, label %_ZN21btSimpleDynamicsWorldD2Ev.exit, label %if.then.i

if.then.i:                                        ; preds = %entry
  %m_constraintSolver.i = getelementptr inbounds i8, ptr %this, i64 280
  %2 = load ptr, ptr %m_constraintSolver.i, align 8
  invoke void @_Z21btAlignedFreeInternalPv(ptr noundef %2)
          to label %_ZN21btSimpleDynamicsWorldD2Ev.exit unwind label %terminate.lpad.i

terminate.lpad.i:                                 ; preds = %if.then.i
  %3 = landingpad { ptr, i32 }
          catch ptr null
  %4 = extractvalue { ptr, i32 } %3, 0
  tail call void @__clang_call_terminate(ptr %4) #13
  unreachable

_ZN21btSimpleDynamicsWorldD2Ev.exit:              ; preds = %entry, %if.then.i
  tail call void @_ZN16btCollisionWorldD2Ev(ptr noundef nonnull align 8 dereferenceable(121) %this) #12
  tail call void @_ZdlPv(ptr noundef nonnull %this) #14
  ret void
}